     1 00000000                                 [FORMAT "WCOFF"]
     2 00000000                                 [INSTRSET "i486p"]
     3 00000000                                 [OPTIMIZE 1]
     4 00000000                                 [OPTION 1]
     5 00000000                                 [BITS 32]
     6 00000000                                 	EXTERN	_init_gdtidt
     7 00000000                                 	EXTERN	_init_pic
     8 00000000                                 	EXTERN	_io_sti
     9 00000000                                 	EXTERN	_fifo32_init
    10 00000000                                 	EXTERN	_init_pit
    11 00000000                                 	EXTERN	_init_keyboard
    12 00000000                                 	EXTERN	_enable_mouse
    13 00000000                                 	EXTERN	_io_out8
    14 00000000                                 	EXTERN	_memtest
    15 00000000                                 	EXTERN	_memman_init
    16 00000000                                 	EXTERN	_memman_free
    17 00000000                                 	EXTERN	_init_palette
    18 00000000                                 	EXTERN	_shtctl_init
    19 00000000                                 	EXTERN	_task_init
    20 00000000                                 	EXTERN	_task_run
    21 00000000                                 	EXTERN	_sheet_alloc
    22 00000000                                 	EXTERN	_memman_alloc_4k
    23 00000000                                 	EXTERN	_sheet_setbuf
    24 00000000                                 	EXTERN	_init_screen8
    25 00000000                                 	EXTERN	_make_window8
    26 00000000                                 	EXTERN	_make_textbox8
    27 00000000                                 	EXTERN	_task_alloc
    28 00000000                                 	EXTERN	_console_task
    29 00000000                                 	EXTERN	_init_mouse_cursor8
    30 00000000                                 	EXTERN	_sheet_slide
    31 00000000                                 	EXTERN	_sheet_updown
    32 00000000                                 	EXTERN	_fifo32_put
    33 00000000                                 	EXTERN	_fifo32_status
    34 00000000                                 	EXTERN	_io_cli
    35 00000000                                 	EXTERN	_fifo32_get
    36 00000000                                 	EXTERN	_mouse_decode
    37 00000000                                 	EXTERN	_cons_putstr0
    38 00000000                                 	EXTERN	_asm_end_app
    39 00000000                                 	EXTERN	_keytable0.0
    40 00000000                                 	EXTERN	_wait_KBC_sendready
    41 00000000                                 	EXTERN	_keytable1.1
    42 00000000                                 	EXTERN	_task_sleep
    43 00000000                                 	EXTERN	_change_wtitle8
    44 00000000                                 [FILE "bootpack.c"]
    45                                          [SECTION .data]
    46 00000000                                 _keytable0.0:
    47 00000000 00                              	DB	0
    48 00000001 00                              	DB	0
    49 00000002 31                              	DB	49
    50 00000003 32                              	DB	50
    51 00000004 33                              	DB	51
    52 00000005 34                              	DB	52
    53 00000006 35                              	DB	53
    54 00000007 36                              	DB	54
    55 00000008 37                              	DB	55
    56 00000009 38                              	DB	56
    57 0000000A 39                              	DB	57
    58 0000000B 30                              	DB	48
    59 0000000C 2D                              	DB	45
    60 0000000D 5E                              	DB	94
    61 0000000E 08                              	DB	8
    62 0000000F 00                              	DB	0
    63 00000010 51                              	DB	81
    64 00000011 57                              	DB	87
    65 00000012 45                              	DB	69
    66 00000013 52                              	DB	82
    67 00000014 54                              	DB	84
    68 00000015 59                              	DB	89
    69 00000016 55                              	DB	85
    70 00000017 49                              	DB	73
    71 00000018 4F                              	DB	79
    72 00000019 50                              	DB	80
    73 0000001A 40                              	DB	64
    74 0000001B 5B                              	DB	91
    75 0000001C 0A                              	DB	10
    76 0000001D 00                              	DB	0
    77 0000001E 41                              	DB	65
    78 0000001F 53                              	DB	83
    79 00000020 44                              	DB	68
    80 00000021 46                              	DB	70
    81 00000022 47                              	DB	71
    82 00000023 48                              	DB	72
    83 00000024 4A                              	DB	74
    84 00000025 4B                              	DB	75
    85 00000026 4C                              	DB	76
    86 00000027 3B                              	DB	59
    87 00000028 3A                              	DB	58
    88 00000029 00                              	DB	0
    89 0000002A 00                              	DB	0
    90 0000002B 5D                              	DB	93
    91 0000002C 5A                              	DB	90
    92 0000002D 58                              	DB	88
    93 0000002E 43                              	DB	67
    94 0000002F 56                              	DB	86
    95 00000030 42                              	DB	66
    96 00000031 4E                              	DB	78
    97 00000032 4D                              	DB	77
    98 00000033 2C                              	DB	44
    99 00000034 2E                              	DB	46
   100 00000035 2F                              	DB	47
   101 00000036 00                              	DB	0
   102 00000037 2A                              	DB	42
   103 00000038 00                              	DB	0
   104 00000039 20                              	DB	32
   105 0000003A 00                              	DB	0
   106 0000003B 00                              	DB	0
   107 0000003C 00                              	DB	0
   108 0000003D 00                              	DB	0
   109 0000003E 00                              	DB	0
   110 0000003F 00                              	DB	0
   111 00000040 00                              	DB	0
   112 00000041 00                              	DB	0
   113 00000042 00                              	DB	0
   114 00000043 00                              	DB	0
   115 00000044 00                              	DB	0
   116 00000045 00                              	DB	0
   117 00000046 00                              	DB	0
   118 00000047 37                              	DB	55
   119 00000048 38                              	DB	56
   120 00000049 39                              	DB	57
   121 0000004A 2D                              	DB	45
   122 0000004B 34                              	DB	52
   123 0000004C 35                              	DB	53
   124 0000004D 36                              	DB	54
   125 0000004E 2B                              	DB	43
   126 0000004F 31                              	DB	49
   127 00000050 32                              	DB	50
   128 00000051 33                              	DB	51
   129 00000052 30                              	DB	48
   130 00000053 2E                              	DB	46
   131 00000054 00                              	DB	0
   132 00000055 00                              	DB	0
   133 00000056 00                              	DB	0
   134 00000057 00                              	DB	0
   135 00000058 00                              	DB	0
   136 00000059 00                              	DB	0
   137 0000005A 00                              	DB	0
   138 0000005B 00                              	DB	0
   139 0000005C 00                              	DB	0
   140 0000005D 00                              	DB	0
   141 0000005E 00                              	DB	0
   142 0000005F 00                              	DB	0
   143 00000060 00                              	DB	0
   144 00000061 00                              	DB	0
   145 00000062 00                              	DB	0
   146 00000063 00                              	DB	0
   147 00000064 00                              	DB	0
   148 00000065 00                              	DB	0
   149 00000066 00                              	DB	0
   150 00000067 00                              	DB	0
   151 00000068 00                              	DB	0
   152 00000069 00                              	DB	0
   153 0000006A 00                              	DB	0
   154 0000006B 00                              	DB	0
   155 0000006C 00                              	DB	0
   156 0000006D 00                              	DB	0
   157 0000006E 00                              	DB	0
   158 0000006F 00                              	DB	0
   159 00000070 00                              	DB	0
   160 00000071 00                              	DB	0
   161 00000072 00                              	DB	0
   162 00000073 5C                              	DB	92
   163 00000074 00                              	DB	0
   164 00000075 00                              	DB	0
   165 00000076 00                              	DB	0
   166 00000077 00                              	DB	0
   167 00000078 00                              	DB	0
   168 00000079 00                              	DB	0
   169 0000007A 00                              	DB	0
   170 0000007B 00                              	DB	0
   171 0000007C 00                              	DB	0
   172 0000007D 5C                              	DB	92
   173 0000007E 00                              	DB	0
   174 0000007F 00                              	DB	0
   175 00000080                                 _keytable1.1:
   176 00000080 00                              	DB	0
   177 00000081 00                              	DB	0
   178 00000082 21                              	DB	33
   179 00000083 22                              	DB	34
   180 00000084 23                              	DB	35
   181 00000085 24                              	DB	36
   182 00000086 25                              	DB	37
   183 00000087 26                              	DB	38
   184 00000088 27                              	DB	39
   185 00000089 28                              	DB	40
   186 0000008A 29                              	DB	41
   187 0000008B 7E                              	DB	126
   188 0000008C 3D                              	DB	61
   189 0000008D 7E                              	DB	126
   190 0000008E 08                              	DB	8
   191 0000008F 00                              	DB	0
   192 00000090 51                              	DB	81
   193 00000091 57                              	DB	87
   194 00000092 45                              	DB	69
   195 00000093 52                              	DB	82
   196 00000094 54                              	DB	84
   197 00000095 59                              	DB	89
   198 00000096 55                              	DB	85
   199 00000097 49                              	DB	73
   200 00000098 4F                              	DB	79
   201 00000099 50                              	DB	80
   202 0000009A 60                              	DB	96
   203 0000009B 7B                              	DB	123
   204 0000009C 0A                              	DB	10
   205 0000009D 00                              	DB	0
   206 0000009E 41                              	DB	65
   207 0000009F 53                              	DB	83
   208 000000A0 44                              	DB	68
   209 000000A1 46                              	DB	70
   210 000000A2 47                              	DB	71
   211 000000A3 48                              	DB	72
   212 000000A4 4A                              	DB	74
   213 000000A5 4B                              	DB	75
   214 000000A6 4C                              	DB	76
   215 000000A7 2B                              	DB	43
   216 000000A8 2A                              	DB	42
   217 000000A9 00                              	DB	0
   218 000000AA 00                              	DB	0
   219 000000AB 7D                              	DB	125
   220 000000AC 5A                              	DB	90
   221 000000AD 58                              	DB	88
   222 000000AE 43                              	DB	67
   223 000000AF 56                              	DB	86
   224 000000B0 42                              	DB	66
   225 000000B1 4E                              	DB	78
   226 000000B2 4D                              	DB	77
   227 000000B3 3C                              	DB	60
   228 000000B4 3E                              	DB	62
   229 000000B5 3F                              	DB	63
   230 000000B6 00                              	DB	0
   231 000000B7 2A                              	DB	42
   232 000000B8 00                              	DB	0
   233 000000B9 20                              	DB	32
   234 000000BA 00                              	DB	0
   235 000000BB 00                              	DB	0
   236 000000BC 00                              	DB	0
   237 000000BD 00                              	DB	0
   238 000000BE 00                              	DB	0
   239 000000BF 00                              	DB	0
   240 000000C0 00                              	DB	0
   241 000000C1 00                              	DB	0
   242 000000C2 00                              	DB	0
   243 000000C3 00                              	DB	0
   244 000000C4 00                              	DB	0
   245 000000C5 00                              	DB	0
   246 000000C6 00                              	DB	0
   247 000000C7 37                              	DB	55
   248 000000C8 38                              	DB	56
   249 000000C9 39                              	DB	57
   250 000000CA 2D                              	DB	45
   251 000000CB 34                              	DB	52
   252 000000CC 35                              	DB	53
   253 000000CD 36                              	DB	54
   254 000000CE 2B                              	DB	43
   255 000000CF 31                              	DB	49
   256 000000D0 32                              	DB	50
   257 000000D1 33                              	DB	51
   258 000000D2 30                              	DB	48
   259 000000D3 2E                              	DB	46
   260 000000D4 00                              	DB	0
   261 000000D5 00                              	DB	0
   262 000000D6 00                              	DB	0
   263 000000D7 00                              	DB	0
   264 000000D8 00                              	DB	0
   265 000000D9 00                              	DB	0
   266 000000DA 00                              	DB	0
   267 000000DB 00                              	DB	0
   268 000000DC 00                              	DB	0
   269 000000DD 00                              	DB	0
   270 000000DE 00                              	DB	0
   271 000000DF 00                              	DB	0
   272 000000E0 00                              	DB	0
   273 000000E1 00                              	DB	0
   274 000000E2 00                              	DB	0
   275 000000E3 00                              	DB	0
   276 000000E4 00                              	DB	0
   277 000000E5 00                              	DB	0
   278 000000E6 00                              	DB	0
   279 000000E7 00                              	DB	0
   280 000000E8 00                              	DB	0
   281 000000E9 00                              	DB	0
   282 000000EA 00                              	DB	0
   283 000000EB 00                              	DB	0
   284 000000EC 00                              	DB	0
   285 000000ED 00                              	DB	0
   286 000000EE 00                              	DB	0
   287 000000EF 00                              	DB	0
   288 000000F0 00                              	DB	0
   289 000000F1 00                              	DB	0
   290 000000F2 00                              	DB	0
   291 000000F3 5F                              	DB	95
   292 000000F4 00                              	DB	0
   293 000000F5 00                              	DB	0
   294 000000F6 00                              	DB	0
   295 000000F7 00                              	DB	0
   296 000000F8 00                              	DB	0
   297 000000F9 00                              	DB	0
   298 000000FA 00                              	DB	0
   299 000000FB 00                              	DB	0
   300 000000FC 00                              	DB	0
   301 000000FD 7C                              	DB	124
   302 000000FE 00                              	DB	0
   303 000000FF 00                              	DB	0
   304 00000100                                 LC0:
   305 00000100 63 6F 6E 73 6F 6C 65 00         	DB	"console",0x00
   306 00000108                                 LC2:
   307 00000108 0A 42 72 65 61 6B 28 6D 6F 75   	DB	0x0A,"Break(mouse) :",0x0A,0x00
       00000112 73 65 29 20 3A 0A 00 
   308 00000119                                 LC1:
   309 00000119 0A 42 72 65 61 6B 28 6B 65 79   	DB	0x0A,"Break(key) :",0x0A,0x00
       00000123 29 20 3A 0A 00 
   310                                          [SECTION .text]
   311 00000000                                 	GLOBAL	_HariMain
   312 00000000                                 _HariMain:
   313 00000000 55                              	PUSH	EBP
   314 00000001 89 E5                           	MOV	EBP,ESP
   315 00000003 57                              	PUSH	EDI
   316 00000004 56                              	PUSH	ESI
   317 00000005 53                              	PUSH	EBX
   318 00000006 8D 5D A4                        	LEA	EBX,DWORD [-92+EBP]
   319 00000009 81 EC 00000460                  	SUB	ESP,1120
   320 0000000F C7 85 FFFFFBB0 00000000         	MOV	DWORD [-1104+EBP],0
   321 00000019 A0 00000FF1                     	MOV	AL,BYTE [4081]
   322 0000001E C0 F8 04                        	SAR	AL,4
   323 00000021 89 C2                           	MOV	EDX,EAX
   324 00000023 83 E2 07                        	AND	EDX,7
   325 00000026 89 95 FFFFFBAC                  	MOV	DWORD [-1108+EBP],EDX
   326 0000002C C7 85 FFFFFBA8 FFFFFFFF         	MOV	DWORD [-1112+EBP],-1
   327 00000036 C7 85 FFFFFBA4 FFFFFFFF         	MOV	DWORD [-1116+EBP],-1
   328 00000040 C7 85 FFFFFBA0 FFFFFFFF         	MOV	DWORD [-1120+EBP],-1
   329 0000004A C7 85 FFFFFB9C 00000000         	MOV	DWORD [-1124+EBP],0
   330 00000054 E8 [00000000]                   	CALL	_init_gdtidt
   331 00000059 E8 [00000000]                   	CALL	_init_pic
   332 0000005E E8 [00000000]                   	CALL	_io_sti
   333 00000063 8D 85 FFFFFD84                  	LEA	EAX,DWORD [-636+EBP]
   334 00000069 6A 00                           	PUSH	0
   335 0000006B 50                              	PUSH	EAX
   336 0000006C 68 00000080                     	PUSH	128
   337 00000071 53                              	PUSH	EBX
   338 00000072 E8 [00000000]                   	CALL	_fifo32_init
   339 00000077 E8 [00000000]                   	CALL	_init_pit
   340 0000007C 68 00000100                     	PUSH	256
   341 00000081 53                              	PUSH	EBX
   342 00000082 E8 [00000000]                   	CALL	_init_keyboard
   343 00000087 8D 85 FFFFFCF4                  	LEA	EAX,DWORD [-780+EBP]
   344 0000008D 50                              	PUSH	EAX
   345 0000008E 68 00000200                     	PUSH	512
   346 00000093 53                              	PUSH	EBX
   347 00000094 E8 [00000000]                   	CALL	_enable_mouse
   348 00000099 83 C4 24                        	ADD	ESP,36
   349 0000009C 68 000000F8                     	PUSH	248
   350 000000A1 6A 21                           	PUSH	33
   351 000000A3 E8 [00000000]                   	CALL	_io_out8
   352 000000A8 68 000000EF                     	PUSH	239
   353 000000AD 68 000000A1                     	PUSH	161
   354 000000B2 E8 [00000000]                   	CALL	_io_out8
   355 000000B7 8D 85 FFFFFD04                  	LEA	EAX,DWORD [-764+EBP]
   356 000000BD 6A 00                           	PUSH	0
   357 000000BF 50                              	PUSH	EAX
   358 000000C0 8D 45 84                        	LEA	EAX,DWORD [-124+EBP]
   359 000000C3 6A 20                           	PUSH	32
   360 000000C5 50                              	PUSH	EAX
   361 000000C6 E8 [00000000]                   	CALL	_fifo32_init
   362 000000CB 83 C4 20                        	ADD	ESP,32
   363 000000CE 68 BFFFFFFF                     	PUSH	-1073741825
   364 000000D3 68 00400000                     	PUSH	4194304
   365 000000D8 E8 [00000000]                   	CALL	_memtest
   366 000000DD 68 003C0000                     	PUSH	3932160
   367 000000E2 89 85 FFFFFBC0                  	MOV	DWORD [-1088+EBP],EAX
   368 000000E8 E8 [00000000]                   	CALL	_memman_init
   369 000000ED 68 0009E000                     	PUSH	647168
   370 000000F2 68 00001000                     	PUSH	4096
   371 000000F7 68 003C0000                     	PUSH	3932160
   372 000000FC E8 [00000000]                   	CALL	_memman_free
   373 00000101 8B 85 FFFFFBC0                  	MOV	EAX,DWORD [-1088+EBP]
   374 00000107 2D 00400000                     	SUB	EAX,4194304
   375 0000010C 50                              	PUSH	EAX
   376 0000010D 68 00400000                     	PUSH	4194304
   377 00000112 68 003C0000                     	PUSH	3932160
   378 00000117 E8 [00000000]                   	CALL	_memman_free
   379 0000011C 83 C4 24                        	ADD	ESP,36
   380 0000011F E8 [00000000]                   	CALL	_init_palette
   381 00000124 0F BF 05 00000FF6               	MOVSX	EAX,WORD [4086]
   382 0000012B 50                              	PUSH	EAX
   383 0000012C 0F BF 05 00000FF4               	MOVSX	EAX,WORD [4084]
   384 00000133 50                              	PUSH	EAX
   385 00000134 FF 35 00000FF8                  	PUSH	DWORD [4088]
   386 0000013A 68 003C0000                     	PUSH	3932160
   387 0000013F E8 [00000000]                   	CALL	_shtctl_init
   388 00000144 68 003C0000                     	PUSH	3932160
   389 00000149 89 85 FFFFFBD0                  	MOV	DWORD [-1072+EBP],EAX
   390 0000014F E8 [00000000]                   	CALL	_task_init
   391 00000154 6A 02                           	PUSH	2
   392 00000156 6A 01                           	PUSH	1
   393 00000158 89 85 FFFFFBB4                  	MOV	DWORD [-1100+EBP],EAX
   394 0000015E 50                              	PUSH	EAX
   395 0000015F 89 45 BC                        	MOV	DWORD [-68+EBP],EAX
   396 00000162 E8 [00000000]                   	CALL	_task_run
   397 00000167 83 C4 20                        	ADD	ESP,32
   398 0000016A 8B 8D FFFFFBD0                  	MOV	ECX,DWORD [-1072+EBP]
   399 00000170 89 0D 00000FE4                  	MOV	DWORD [4068],ECX
   400 00000176 51                              	PUSH	ECX
   401 00000177 E8 [00000000]                   	CALL	_sheet_alloc
   402 0000017C 0F BF 15 00000FF6               	MOVSX	EDX,WORD [4086]
   403 00000183 89 85 FFFFFBBC                  	MOV	DWORD [-1092+EBP],EAX
   404 00000189 0F BF 05 00000FF4               	MOVSX	EAX,WORD [4084]
   405 00000190 0F AF C2                        	IMUL	EAX,EDX
   406 00000193 50                              	PUSH	EAX
   407 00000194 68 003C0000                     	PUSH	3932160
   408 00000199 E8 [00000000]                   	CALL	_memman_alloc_4k
   409 0000019E 6A FF                           	PUSH	-1
   410 000001A0 89 C3                           	MOV	EBX,EAX
   411 000001A2 0F BF 05 00000FF6               	MOVSX	EAX,WORD [4086]
   412 000001A9 50                              	PUSH	EAX
   413 000001AA 0F BF 05 00000FF4               	MOVSX	EAX,WORD [4084]
   414 000001B1 50                              	PUSH	EAX
   415 000001B2 53                              	PUSH	EBX
   416 000001B3 FF B5 FFFFFBBC                  	PUSH	DWORD [-1092+EBP]
   417 000001B9 E8 [00000000]                   	CALL	_sheet_setbuf
   418 000001BE 83 C4 20                        	ADD	ESP,32
   419 000001C1 0F BF 05 00000FF6               	MOVSX	EAX,WORD [4086]
   420 000001C8 50                              	PUSH	EAX
   421 000001C9 0F BF 05 00000FF4               	MOVSX	EAX,WORD [4084]
   422 000001D0 50                              	PUSH	EAX
   423 000001D1 53                              	PUSH	EBX
   424 000001D2 E8 [00000000]                   	CALL	_init_screen8
   425 000001D7 83 C4 0C                        	ADD	ESP,12
   426 000001DA C7 85 FFFFFBC4 00000001         	MOV	DWORD [-1084+EBP],1
   427 000001E4 31 FF                           	XOR	EDI,EDI
   428 000001E6                                 L6:
   429 000001E6 FF B5 FFFFFBD0                  	PUSH	DWORD [-1072+EBP]
   430 000001EC 8D 9D FFFFFBE4                  	LEA	EBX,DWORD [-1052+EBP]
   431 000001F2 E8 [00000000]                   	CALL	_sheet_alloc
   432 000001F7 68 0000A500                     	PUSH	42240
   433 000001FC 8D B5 FFFFFBDC                  	LEA	ESI,DWORD [-1060+EBP]
   434 00000202 68 003C0000                     	PUSH	3932160
   435 00000207 89 84 3D FFFFFBEC               	MOV	DWORD [-1044+EBP+EDI*1],EAX
   436 0000020E E8 [00000000]                   	CALL	_memman_alloc_4k
   437 00000213 89 04 3B                        	MOV	DWORD [EBX+EDI*1],EAX
   438 00000216 6A FF                           	PUSH	-1
   439 00000218 68 000000A5                     	PUSH	165
   440 0000021D 68 00000100                     	PUSH	256
   441 00000222 50                              	PUSH	EAX
   442 00000223 FF B4 3D FFFFFBEC               	PUSH	DWORD [-1044+EBP+EDI*1]
   443 0000022A E8 [00000000]                   	CALL	_sheet_setbuf
   444 0000022F 83 C4 20                        	ADD	ESP,32
   445 00000232 6A 00                           	PUSH	0
   446 00000234 68 [00000100]                   	PUSH	LC0
   447 00000239 68 000000A5                     	PUSH	165
   448 0000023E 68 00000100                     	PUSH	256
   449 00000243 FF 34 3B                        	PUSH	DWORD [EBX+EDI*1]
   450 00000246 E8 [00000000]                   	CALL	_make_window8
   451 0000024B 6A 00                           	PUSH	0
   452 0000024D 68 00000080                     	PUSH	128
   453 00000252 68 000000F0                     	PUSH	240
   454 00000257 6A 1C                           	PUSH	28
   455 00000259 6A 08                           	PUSH	8
   456 0000025B FF B4 3D FFFFFBEC               	PUSH	DWORD [-1044+EBP+EDI*1]
   457 00000262 E8 [00000000]                   	CALL	_make_textbox8
   458 00000267 83 C4 2C                        	ADD	ESP,44
   459 0000026A E8 [00000000]                   	CALL	_task_alloc
   460 0000026F 89 C3                           	MOV	EBX,EAX
   461 00000271 89 04 3E                        	MOV	DWORD [ESI+EDI*1],EAX
   462 00000274 68 00010000                     	PUSH	65536
   463 00000279 68 003C0000                     	PUSH	3932160
   464 0000027E E8 [00000000]                   	CALL	_memman_alloc_4k
   465 00000283 8B 94 3D FFFFFBEC               	MOV	EDX,DWORD [-1044+EBP+EDI*1]
   466 0000028A 05 0000FFF4                     	ADD	EAX,65524
   467 0000028F 89 43 64                        	MOV	DWORD [100+EBX],EAX
   468 00000292 8B 04 3E                        	MOV	EAX,DWORD [ESI+EDI*1]
   469 00000295 8B 48 64                        	MOV	ECX,DWORD [100+EAX]
   470 00000298 C7 40 4C [00000000]             	MOV	DWORD [76+EAX],_console_task
   471 0000029F C7 40 74 00000008               	MOV	DWORD [116+EAX],8
   472 000002A6 C7 40 78 00000010               	MOV	DWORD [120+EAX],16
   473 000002AD C7 40 7C 00000008               	MOV	DWORD [124+EAX],8
   474 000002B4 C7 80 00000080 00000008         	MOV	DWORD [128+EAX],8
   475 000002BE C7 80 00000084 00000008         	MOV	DWORD [132+EAX],8
   476 000002C8 C7 80 00000088 00000008         	MOV	DWORD [136+EAX],8
   477 000002D2 89 51 04                        	MOV	DWORD [4+ECX],EDX
   478 000002D5 8B 8D FFFFFBC0                  	MOV	ECX,DWORD [-1088+EBP]
   479 000002DB 8B 50 64                        	MOV	EDX,DWORD [100+EAX]
   480 000002DE 89 4A 08                        	MOV	DWORD [8+EDX],ECX
   481 000002E1 6A 02                           	PUSH	2
   482 000002E3 6A 02                           	PUSH	2
   483 000002E5 50                              	PUSH	EAX
   484 000002E6 E8 [00000000]                   	CALL	_task_run
   485 000002EB 8B 14 3E                        	MOV	EDX,DWORD [ESI+EDI*1]
   486 000002EE 8B 84 3D FFFFFBEC               	MOV	EAX,DWORD [-1044+EBP+EDI*1]
   487 000002F5 83 48 1C 20                     	OR	DWORD [28+EAX],32
   488 000002F9 89 50 24                        	MOV	DWORD [36+EAX],EDX
   489 000002FC 68 00000200                     	PUSH	512
   490 00000301 68 003C0000                     	PUSH	3932160
   491 00000306 E8 [00000000]                   	CALL	_memman_alloc_4k
   492 0000030B 8D 95 FFFFFBD4                  	LEA	EDX,DWORD [-1068+EBP]
   493 00000311 89 04 3A                        	MOV	DWORD [EDX+EDI*1],EAX
   494 00000314 FF 34 3E                        	PUSH	DWORD [ESI+EDI*1]
   495 00000317 50                              	PUSH	EAX
   496 00000318 68 00000080                     	PUSH	128
   497 0000031D 8B 04 3E                        	MOV	EAX,DWORD [ESI+EDI*1]
   498 00000320 83 C7 04                        	ADD	EDI,4
   499 00000323 83 C0 10                        	ADD	EAX,16
   500 00000326 50                              	PUSH	EAX
   501 00000327 E8 [00000000]                   	CALL	_fifo32_init
   502 0000032C 83 C4 2C                        	ADD	ESP,44
   503 0000032F FF 8D FFFFFBC4                  	DEC	DWORD [-1084+EBP]
   504 00000335 0F 89 FFFFFEAB                  	JNS	L6
   505 0000033B FF B5 FFFFFBD0                  	PUSH	DWORD [-1072+EBP]
   506 00000341 C7 85 FFFFFBC4 00000002         	MOV	DWORD [-1084+EBP],2
   507 0000034B 8D 9D FFFFFBF4                  	LEA	EBX,DWORD [-1036+EBP]
   508 00000351 E8 [00000000]                   	CALL	_sheet_alloc
   509 00000356 6A 63                           	PUSH	99
   510 00000358 6A 10                           	PUSH	16
   511 0000035A 89 85 FFFFFBB8                  	MOV	DWORD [-1096+EBP],EAX
   512 00000360 6A 10                           	PUSH	16
   513 00000362 53                              	PUSH	EBX
   514 00000363 50                              	PUSH	EAX
   515 00000364 E8 [00000000]                   	CALL	_sheet_setbuf
   516 00000369 6A 63                           	PUSH	99
   517 0000036B 53                              	PUSH	EBX
   518 0000036C 8D 5D 84                        	LEA	EBX,DWORD [-124+EBP]
   519 0000036F E8 [00000000]                   	CALL	_init_mouse_cursor8
   520 00000374 83 C4 20                        	ADD	ESP,32
   521 00000377 0F BF 05 00000FF4               	MOVSX	EAX,WORD [4084]
   522 0000037E 8D 50 F0                        	LEA	EDX,DWORD [-16+EAX]
   523 00000381 89 D0                           	MOV	EAX,EDX
   524 00000383 99                              	CDQ
   525 00000384 F7 BD FFFFFBC4                  	IDIV	DWORD [-1084+EBP]
   526 0000038A 89 85 FFFFFBCC                  	MOV	DWORD [-1076+EBP],EAX
   527 00000390 0F BF 05 00000FF6               	MOVSX	EAX,WORD [4086]
   528 00000397 6A 00                           	PUSH	0
   529 00000399 8D 50 D4                        	LEA	EDX,DWORD [-44+EAX]
   530 0000039C 6A 00                           	PUSH	0
   531 0000039E 89 D0                           	MOV	EAX,EDX
   532 000003A0 99                              	CDQ
   533 000003A1 F7 BD FFFFFBC4                  	IDIV	DWORD [-1084+EBP]
   534 000003A7 FF B5 FFFFFBBC                  	PUSH	DWORD [-1092+EBP]
   535 000003AD 89 85 FFFFFBC8                  	MOV	DWORD [-1080+EBP],EAX
   536 000003B3 E8 [00000000]                   	CALL	_sheet_slide
   537 000003B8 6A 06                           	PUSH	6
   538 000003BA 6A 38                           	PUSH	56
   539 000003BC FF B5 FFFFFBF0                  	PUSH	DWORD [-1040+EBP]
   540 000003C2 E8 [00000000]                   	CALL	_sheet_slide
   541 000003C7 6A 02                           	PUSH	2
   542 000003C9 6A 08                           	PUSH	8
   543 000003CB FF B5 FFFFFBEC                  	PUSH	DWORD [-1044+EBP]
   544 000003D1 E8 [00000000]                   	CALL	_sheet_slide
   545 000003D6 83 C4 24                        	ADD	ESP,36
   546 000003D9 FF B5 FFFFFBC8                  	PUSH	DWORD [-1080+EBP]
   547 000003DF FF B5 FFFFFBCC                  	PUSH	DWORD [-1076+EBP]
   548 000003E5 FF B5 FFFFFBB8                  	PUSH	DWORD [-1096+EBP]
   549 000003EB E8 [00000000]                   	CALL	_sheet_slide
   550 000003F0 6A 00                           	PUSH	0
   551 000003F2 FF B5 FFFFFBBC                  	PUSH	DWORD [-1092+EBP]
   552 000003F8 E8 [00000000]                   	CALL	_sheet_updown
   553 000003FD 6A 01                           	PUSH	1
   554 000003FF FF B5 FFFFFBF0                  	PUSH	DWORD [-1040+EBP]
   555 00000405 E8 [00000000]                   	CALL	_sheet_updown
   556 0000040A 6A 02                           	PUSH	2
   557 0000040C FF B5 FFFFFBEC                  	PUSH	DWORD [-1044+EBP]
   558 00000412 E8 [00000000]                   	CALL	_sheet_updown
   559 00000417 83 C4 24                        	ADD	ESP,36
   560 0000041A 6A 03                           	PUSH	3
   561 0000041C FF B5 FFFFFBB8                  	PUSH	DWORD [-1096+EBP]
   562 00000422 E8 [00000000]                   	CALL	_sheet_updown
   563 00000427 8B BD FFFFFBEC                  	MOV	EDI,DWORD [-1044+EBP]
   564 0000042D 57                              	PUSH	EDI
   565 0000042E E8 0000061D                     	CALL	_keywin_on
   566 00000433 68 000000ED                     	PUSH	237
   567 00000438 53                              	PUSH	EBX
   568 00000439 E8 [00000000]                   	CALL	_fifo32_put
   569 0000043E FF B5 FFFFFBAC                  	PUSH	DWORD [-1108+EBP]
   570 00000444 53                              	PUSH	EBX
   571 00000445 E8 [00000000]                   	CALL	_fifo32_put
   572 0000044A 83 C4 1C                        	ADD	ESP,28
   573 0000044D                                 L7:
   574 0000044D 8D 5D 84                        	LEA	EBX,DWORD [-124+EBP]
   575 00000450 53                              	PUSH	EBX
   576 00000451 E8 [00000000]                   	CALL	_fifo32_status
   577 00000456 59                              	POP	ECX
   578 00000457 85 C0                           	TEST	EAX,EAX
   579 00000459 7E 0D                           	JLE	L10
   580 0000045B 83 BD FFFFFBA8 00               	CMP	DWORD [-1112+EBP],0
   581 00000462 0F 88 00000594                  	JS	L67
   582 00000468                                 L10:
   583 00000468 8D 5D A4                        	LEA	EBX,DWORD [-92+EBP]
   584 0000046B E8 [00000000]                   	CALL	_io_cli
   585 00000470 53                              	PUSH	EBX
   586 00000471 E8 [00000000]                   	CALL	_fifo32_status
   587 00000476 5A                              	POP	EDX
   588 00000477 85 C0                           	TEST	EAX,EAX
   589 00000479 0F 84 00000567                  	JE	L68
   590 0000047F 53                              	PUSH	EBX
   591 00000480 E8 [00000000]                   	CALL	_fifo32_get
   592 00000485 89 85 FFFFFBC4                  	MOV	DWORD [-1084+EBP],EAX
   593 0000048B E8 [00000000]                   	CALL	_io_sti
   594 00000490 58                              	POP	EAX
   595 00000491 83 7F 1C 00                     	CMP	DWORD [28+EDI],0
   596 00000495 75 14                           	JNE	L13
   597 00000497 8B 95 FFFFFBD0                  	MOV	EDX,DWORD [-1072+EBP]
   598 0000049D 8B 42 10                        	MOV	EAX,DWORD [16+EDX]
   599 000004A0 8B 7C 82 10                     	MOV	EDI,DWORD [16+EDX+EAX*4]
   600 000004A4 57                              	PUSH	EDI
   601 000004A5 E8 000005A6                     	CALL	_keywin_on
   602 000004AA 58                              	POP	EAX
   603 000004AB                                 L13:
   604 000004AB 8B 85 FFFFFBC4                  	MOV	EAX,DWORD [-1084+EBP]
   605 000004B1 2D 00000100                     	SUB	EAX,256
   606 000004B6 3D 000000FF                     	CMP	EAX,255
   607 000004BB 0F 86 00000276                  	JBE	L69
   608 000004C1 8B 85 FFFFFBC4                  	MOV	EAX,DWORD [-1084+EBP]
   609 000004C7 2D 00000200                     	SUB	EAX,512
   610 000004CC 3D 000000FF                     	CMP	EAX,255
   611 000004D1 0F 87 FFFFFF76                  	JA	L7
   612 000004D7 0F B6 85 FFFFFBC4               	MOVZX	EAX,BYTE [-1084+EBP]
   613 000004DE 50                              	PUSH	EAX
   614 000004DF 8D 85 FFFFFCF4                  	LEA	EAX,DWORD [-780+EBP]
   615 000004E5 50                              	PUSH	EAX
   616 000004E6 E8 [00000000]                   	CALL	_mouse_decode
   617 000004EB 59                              	POP	ECX
   618 000004EC 5B                              	POP	EBX
   619 000004ED 85 C0                           	TEST	EAX,EAX
   620 000004EF 0F 84 FFFFFF58                  	JE	L7
   621 000004F5 8B 85 FFFFFCFC                  	MOV	EAX,DWORD [-772+EBP]
   622 000004FB 8B 95 FFFFFCF8                  	MOV	EDX,DWORD [-776+EBP]
   623 00000501 01 85 FFFFFBC8                  	ADD	DWORD [-1080+EBP],EAX
   624 00000507 01 95 FFFFFBCC                  	ADD	DWORD [-1076+EBP],EDX
   625 0000050D 0F 88 00000215                  	JS	L70
   626 00000513                                 L41:
   627 00000513 83 BD FFFFFBC8 00               	CMP	DWORD [-1080+EBP],0
   628 0000051A 0F 88 000001F9                  	JS	L71
   629 00000520                                 L42:
   630 00000520 0F BF 05 00000FF4               	MOVSX	EAX,WORD [4084]
   631 00000527 48                              	DEC	EAX
   632 00000528 39 85 FFFFFBCC                  	CMP	DWORD [-1076+EBP],EAX
   633 0000052E 7E 06                           	JLE	L43
   634 00000530 89 85 FFFFFBCC                  	MOV	DWORD [-1076+EBP],EAX
   635 00000536                                 L43:
   636 00000536 0F BF 05 00000FF6               	MOVSX	EAX,WORD [4086]
   637 0000053D 48                              	DEC	EAX
   638 0000053E 39 85 FFFFFBC8                  	CMP	DWORD [-1080+EBP],EAX
   639 00000544 7E 06                           	JLE	L44
   640 00000546 89 85 FFFFFBC8                  	MOV	DWORD [-1080+EBP],EAX
   641 0000054C                                 L44:
   642 0000054C FF B5 FFFFFBC8                  	PUSH	DWORD [-1080+EBP]
   643 00000552 FF B5 FFFFFBCC                  	PUSH	DWORD [-1076+EBP]
   644 00000558 FF B5 FFFFFBB8                  	PUSH	DWORD [-1096+EBP]
   645 0000055E E8 [00000000]                   	CALL	_sheet_slide
   646 00000563 83 C4 0C                        	ADD	ESP,12
   647 00000566 F7 85 FFFFFD00 00000001         	TEST	DWORD [-768+EBP],1
   648 00000570 75 0F                           	JNE	L72
   649 00000572 C7 85 FFFFFBA4 FFFFFFFF         	MOV	DWORD [-1116+EBP],-1
   650 0000057C E9 FFFFFECC                     	JMP	L7
   651 00000581                                 L72:
   652 00000581 83 BD FFFFFBA4 00               	CMP	DWORD [-1116+EBP],0
   653 00000588 78 4C                           	JS	L73
   654 0000058A 8B 9D FFFFFBC8                  	MOV	EBX,DWORD [-1080+EBP]
   655 00000590 8B 85 FFFFFB9C                  	MOV	EAX,DWORD [-1124+EBP]
   656 00000596 2B 9D FFFFFBA0                  	SUB	EBX,DWORD [-1120+EBP]
   657 0000059C 8B B5 FFFFFBCC                  	MOV	ESI,DWORD [-1076+EBP]
   658 000005A2 2B B5 FFFFFBA4                  	SUB	ESI,DWORD [-1116+EBP]
   659 000005A8 03 58 10                        	ADD	EBX,DWORD [16+EAX]
   660 000005AB 53                              	PUSH	EBX
   661 000005AC 03 70 0C                        	ADD	ESI,DWORD [12+EAX]
   662 000005AF 56                              	PUSH	ESI
   663 000005B0 50                              	PUSH	EAX
   664 000005B1 E8 [00000000]                   	CALL	_sheet_slide
   665 000005B6 83 C4 0C                        	ADD	ESP,12
   666 000005B9 8B 95 FFFFFBCC                  	MOV	EDX,DWORD [-1076+EBP]
   667 000005BF 8B 8D FFFFFBC8                  	MOV	ECX,DWORD [-1080+EBP]
   668 000005C5 89 95 FFFFFBA4                  	MOV	DWORD [-1116+EBP],EDX
   669 000005CB 89 8D FFFFFBA0                  	MOV	DWORD [-1120+EBP],ECX
   670 000005D1 E9 FFFFFE77                     	JMP	L7
   671 000005D6                                 L73:
   672 000005D6 8B 8D FFFFFBD0                  	MOV	ECX,DWORD [-1072+EBP]
   673 000005DC 8B 49 10                        	MOV	ECX,DWORD [16+ECX]
   674 000005DF 89 8D FFFFFB98                  	MOV	DWORD [-1128+EBP],ECX
   675 000005E5                                 L66:
   676 000005E5 49                              	DEC	ECX
   677 000005E6 85 C9                           	TEST	ECX,ECX
   678 000005E8 0F 8E FFFFFE5F                  	JLE	L7
   679 000005EE 8B 85 FFFFFBD0                  	MOV	EAX,DWORD [-1072+EBP]
   680 000005F4 8B 9D FFFFFBC8                  	MOV	EBX,DWORD [-1080+EBP]
   681 000005FA 8B B5 FFFFFBCC                  	MOV	ESI,DWORD [-1076+EBP]
   682 00000600 8B 44 88 14                     	MOV	EAX,DWORD [20+EAX+ECX*4]
   683 00000604 89 85 FFFFFB9C                  	MOV	DWORD [-1124+EBP],EAX
   684 0000060A 2B 58 10                        	SUB	EBX,DWORD [16+EAX]
   685 0000060D 2B 70 0C                        	SUB	ESI,DWORD [12+EAX]
   686 00000610 78 D3                           	JS	L66
   687 00000612 8B 40 04                        	MOV	EAX,DWORD [4+EAX]
   688 00000615 39 C6                           	CMP	ESI,EAX
   689 00000617 7D CC                           	JGE	L66
   690 00000619 85 DB                           	TEST	EBX,EBX
   691 0000061B 78 C8                           	JS	L66
   692 0000061D 8B 95 FFFFFB9C                  	MOV	EDX,DWORD [-1124+EBP]
   693 00000623 3B 5A 08                        	CMP	EBX,DWORD [8+EDX]
   694 00000626 7D BD                           	JGE	L66
   695 00000628 0F AF C3                        	IMUL	EAX,EBX
   696 0000062B 89 85 FFFFFB94                  	MOV	DWORD [-1132+EBP],EAX
   697 00000631 8B 12                           	MOV	EDX,DWORD [EDX]
   698 00000633 8B 85 FFFFFB94                  	MOV	EAX,DWORD [-1132+EBP]
   699 00000639 01 F0                           	ADD	EAX,ESI
   700 0000063B 0F B6 04 10                     	MOVZX	EAX,BYTE [EAX+EDX*1]
   701 0000063F 8B 95 FFFFFB9C                  	MOV	EDX,DWORD [-1124+EBP]
   702 00000645 3B 42 14                        	CMP	EAX,DWORD [20+EDX]
   703 00000648 74 9B                           	JE	L66
   704 0000064A 8B 85 FFFFFB98                  	MOV	EAX,DWORD [-1128+EBP]
   705 00000650 48                              	DEC	EAX
   706 00000651 50                              	PUSH	EAX
   707 00000652 52                              	PUSH	EDX
   708 00000653 E8 [00000000]                   	CALL	_sheet_updown
   709 00000658 39 BD FFFFFB9C                  	CMP	DWORD [-1124+EBP],EDI
   710 0000065E 58                              	POP	EAX
   711 0000065F 5A                              	POP	EDX
   712 00000660 74 14                           	JE	L53
   713 00000662 57                              	PUSH	EDI
   714 00000663 E8 000003BA                     	CALL	_keywin_off
   715 00000668 8B BD FFFFFB9C                  	MOV	EDI,DWORD [-1124+EBP]
   716 0000066E 57                              	PUSH	EDI
   717 0000066F E8 000003DC                     	CALL	_keywin_on
   718 00000674 59                              	POP	ECX
   719 00000675 58                              	POP	EAX
   720 00000676                                 L53:
   721 00000676 83 FE 02                        	CMP	ESI,2
   722 00000679 7E 32                           	JLE	L54
   723 0000067B 8B 8D FFFFFB9C                  	MOV	ECX,DWORD [-1124+EBP]
   724 00000681 8B 41 04                        	MOV	EAX,DWORD [4+ECX]
   725 00000684 83 E8 03                        	SUB	EAX,3
   726 00000687 39 C6                           	CMP	ESI,EAX
   727 00000689 7D 22                           	JGE	L54
   728 0000068B 83 FB 02                        	CMP	EBX,2
   729 0000068E 7E 1D                           	JLE	L54
   730 00000690 83 FB 14                        	CMP	EBX,20
   731 00000693 7F 18                           	JG	L54
   732 00000695 8B 85 FFFFFBCC                  	MOV	EAX,DWORD [-1076+EBP]
   733 0000069B 8B 95 FFFFFBC8                  	MOV	EDX,DWORD [-1080+EBP]
   734 000006A1 89 85 FFFFFBA4                  	MOV	DWORD [-1116+EBP],EAX
   735 000006A7 89 95 FFFFFBA0                  	MOV	DWORD [-1120+EBP],EDX
   736 000006AD                                 L54:
   737 000006AD 8B 8D FFFFFB9C                  	MOV	ECX,DWORD [-1124+EBP]
   738 000006B3 8B 51 04                        	MOV	EDX,DWORD [4+ECX]
   739 000006B6 8D 42 EB                        	LEA	EAX,DWORD [-21+EDX]
   740 000006B9 39 F0                           	CMP	EAX,ESI
   741 000006BB 0F 8F FFFFFD8C                  	JG	L7
   742 000006C1 8D 42 FB                        	LEA	EAX,DWORD [-5+EDX]
   743 000006C4 39 C6                           	CMP	ESI,EAX
   744 000006C6 0F 8D FFFFFD81                  	JGE	L7
   745 000006CC 83 FB 04                        	CMP	EBX,4
   746 000006CF 0F 8E FFFFFD78                  	JLE	L7
   747 000006D5 83 FB 12                        	CMP	EBX,18
   748 000006D8 0F 8F FFFFFD6F                  	JG	L7
   749 000006DE F6 41 1C 10                     	TEST	BYTE [28+ECX],16
   750 000006E2 0F 84 FFFFFD65                  	JE	L7
   751 000006E8 8B 59 24                        	MOV	EBX,DWORD [36+ECX]
   752 000006EB 68 [00000108]                   	PUSH	LC2
   753 000006F0 FF B3 00000094                  	PUSH	DWORD [148+EBX]
   754 000006F6 E8 [00000000]                   	CALL	_cons_putstr0
   755 000006FB E8 [00000000]                   	CALL	_io_cli
   756 00000700 8D 43 30                        	LEA	EAX,DWORD [48+EBX]
   757 00000703 89 43 54                        	MOV	DWORD [84+EBX],EAX
   758 00000706 C7 43 4C [00000000]             	MOV	DWORD [76+EBX],_asm_end_app
   759 0000070D E8 [00000000]                   	CALL	_io_sti
   760 00000712                                 L64:
   761 00000712 58                              	POP	EAX
   762 00000713 5A                              	POP	EDX
   763 00000714 E9 FFFFFD34                     	JMP	L7
   764 00000719                                 L71:
   765 00000719 C7 85 FFFFFBC8 00000000         	MOV	DWORD [-1080+EBP],0
   766 00000723 E9 FFFFFDF8                     	JMP	L42
   767 00000728                                 L70:
   768 00000728 C7 85 FFFFFBCC 00000000         	MOV	DWORD [-1076+EBP],0
   769 00000732 E9 FFFFFDDC                     	JMP	L41
   770 00000737                                 L69:
   771 00000737 81 BD FFFFFBC4 0000017F         	CMP	DWORD [-1084+EBP],383
   772 00000741 0F 8F 00000296                  	JG	L15
   773 00000747 83 BD FFFFFBB0 00               	CMP	DWORD [-1104+EBP],0
   774 0000074E 0F 85 00000278                  	JNE	L16
   775 00000754 8B 8D FFFFFBC4                  	MOV	ECX,DWORD [-1084+EBP]
   776 0000075A 8A 81 [FFFFFF00]                	MOV	AL,BYTE [_keytable0.0-256+ECX]
   777 00000760                                 L65:
   778 00000760 88 45 C4                        	MOV	BYTE [-60+EBP],AL
   779 00000763                                 L18:
   780 00000763 8A 55 C4                        	MOV	DL,BYTE [-60+EBP]
   781 00000766 8D 42 BF                        	LEA	EAX,DWORD [-65+EDX]
   782 00000769 3C 19                           	CMP	AL,25
   783 0000076B 77 1D                           	JA	L19
   784 0000076D F7 85 FFFFFBAC 00000004         	TEST	DWORD [-1108+EBP],4
   785 00000777 0F 85 00000240                  	JNE	L63
   786 0000077D 83 BD FFFFFBB0 00               	CMP	DWORD [-1104+EBP],0
   787 00000784 0F 84 00000228                  	JE	L21
   788 0000078A                                 L19:
   789 0000078A 8A 45 C4                        	MOV	AL,BYTE [-60+EBP]
   790 0000078D 84 C0                           	TEST	AL,AL
   791 0000078F 74 17                           	JE	L23
   792 00000791 0F BE C0                        	MOVSX	EAX,AL
   793 00000794 05 00000100                     	ADD	EAX,256
   794 00000799 50                              	PUSH	EAX
   795 0000079A 8B 47 24                        	MOV	EAX,DWORD [36+EDI]
   796 0000079D 83 C0 10                        	ADD	EAX,16
   797 000007A0 50                              	PUSH	EAX
   798 000007A1 E8 [00000000]                   	CALL	_fifo32_put
   799 000007A6 5E                              	POP	ESI
   800 000007A7 58                              	POP	EAX
   801 000007A8                                 L23:
   802 000007A8 81 BD FFFFFBC4 0000010F         	CMP	DWORD [-1084+EBP],271
   803 000007B2 0F 84 000001CD                  	JE	L74
   804 000007B8                                 L24:
   805 000007B8 81 BD FFFFFBC4 0000012A         	CMP	DWORD [-1084+EBP],298
   806 000007C2 0F 84 000001B1                  	JE	L75
   807 000007C8                                 L26:
   808 000007C8 81 BD FFFFFBC4 00000136         	CMP	DWORD [-1084+EBP],310
   809 000007D2 0F 84 00000195                  	JE	L76
   810 000007D8                                 L27:
   811 000007D8 81 BD FFFFFBC4 000001AA         	CMP	DWORD [-1084+EBP],426
   812 000007E2 0F 84 00000179                  	JE	L77
   813 000007E8                                 L28:
   814 000007E8 81 BD FFFFFBC4 000001B6         	CMP	DWORD [-1084+EBP],438
   815 000007F2 0F 84 0000015D                  	JE	L78
   816 000007F8                                 L29:
   817 000007F8 81 BD FFFFFBC4 0000013A         	CMP	DWORD [-1084+EBP],314
   818 00000802 0F 84 00000124                  	JE	L79
   819 00000808                                 L30:
   820 00000808 81 BD FFFFFBC4 00000145         	CMP	DWORD [-1084+EBP],325
   821 00000812 0F 84 000000EB                  	JE	L80
   822 00000818                                 L31:
   823 00000818 81 BD FFFFFBC4 00000146         	CMP	DWORD [-1084+EBP],326
   824 00000822 0F 84 000000B2                  	JE	L81
   825 00000828                                 L32:
   826 00000828 81 BD FFFFFBC4 0000013B         	CMP	DWORD [-1084+EBP],315
   827 00000832 74 62                           	JE	L82
   828 00000834                                 L33:
   829 00000834 81 BD FFFFFBC4 00000157         	CMP	DWORD [-1084+EBP],343
   830 0000083E 74 3F                           	JE	L83
   831 00000840                                 L35:
   832 00000840 81 BD FFFFFBC4 000001FA         	CMP	DWORD [-1084+EBP],506
   833 0000084A 74 27                           	JE	L84
   834 0000084C                                 L36:
   835 0000084C 81 BD FFFFFBC4 000001FE         	CMP	DWORD [-1084+EBP],510
   836 00000856 0F 85 FFFFFBF1                  	JNE	L7
   837 0000085C E8 [00000000]                   	CALL	_wait_KBC_sendready
   838 00000861 FF B5 FFFFFBA8                  	PUSH	DWORD [-1112+EBP]
   839 00000867 6A 60                           	PUSH	96
   840 00000869 E8 [00000000]                   	CALL	_io_out8
   841 0000086E E9 FFFFFE9F                     	JMP	L64
   842 00000873                                 L84:
   843 00000873 C7 85 FFFFFBA8 FFFFFFFF         	MOV	DWORD [-1112+EBP],-1
   844 0000087D EB CD                           	JMP	L36
   845 0000087F                                 L83:
   846 0000087F 8B 8D FFFFFBD0                  	MOV	ECX,DWORD [-1072+EBP]
   847 00000885 8B 41 10                        	MOV	EAX,DWORD [16+ECX]
   848 00000888 48                              	DEC	EAX
   849 00000889 50                              	PUSH	EAX
   850 0000088A FF 71 18                        	PUSH	DWORD [24+ECX]
   851 0000088D E8 [00000000]                   	CALL	_sheet_updown
   852 00000892 5E                              	POP	ESI
   853 00000893 58                              	POP	EAX
   854 00000894 EB AA                           	JMP	L35
   855 00000896                                 L82:
   856 00000896 83 BD FFFFFBB0 00               	CMP	DWORD [-1104+EBP],0
   857 0000089D 74 95                           	JE	L33
   858 0000089F 8B 5F 24                        	MOV	EBX,DWORD [36+EDI]
   859 000008A2 85 DB                           	TEST	EBX,EBX
   860 000008A4 74 8E                           	JE	L33
   861 000008A6 83 7B 34 00                     	CMP	DWORD [52+EBX],0
   862 000008AA 74 88                           	JE	L33
   863 000008AC 68 [00000119]                   	PUSH	LC1
   864 000008B1 FF B3 00000094                  	PUSH	DWORD [148+EBX]
   865 000008B7 E8 [00000000]                   	CALL	_cons_putstr0
   866 000008BC E8 [00000000]                   	CALL	_io_cli
   867 000008C1 8D 43 30                        	LEA	EAX,DWORD [48+EBX]
   868 000008C4 89 43 54                        	MOV	DWORD [84+EBX],EAX
   869 000008C7 C7 43 4C [00000000]             	MOV	DWORD [76+EBX],_asm_end_app
   870 000008CE E8 [00000000]                   	CALL	_io_sti
   871 000008D3 58                              	POP	EAX
   872 000008D4 5A                              	POP	EDX
   873 000008D5 E9 FFFFFF5A                     	JMP	L33
   874 000008DA                                 L81:
   875 000008DA 68 000000ED                     	PUSH	237
   876 000008DF 8D 5D 84                        	LEA	EBX,DWORD [-124+EBP]
   877 000008E2 53                              	PUSH	EBX
   878 000008E3 83 B5 FFFFFBAC 01               	XOR	DWORD [-1108+EBP],1
   879 000008EA E8 [00000000]                   	CALL	_fifo32_put
   880 000008EF FF B5 FFFFFBAC                  	PUSH	DWORD [-1108+EBP]
   881 000008F5 53                              	PUSH	EBX
   882 000008F6 E8 [00000000]                   	CALL	_fifo32_put
   883 000008FB 83 C4 10                        	ADD	ESP,16
   884 000008FE E9 FFFFFF25                     	JMP	L32
   885 00000903                                 L80:
   886 00000903 68 000000ED                     	PUSH	237
   887 00000908 8D 5D 84                        	LEA	EBX,DWORD [-124+EBP]
   888 0000090B 53                              	PUSH	EBX
   889 0000090C 83 B5 FFFFFBAC 02               	XOR	DWORD [-1108+EBP],2
   890 00000913 E8 [00000000]                   	CALL	_fifo32_put
   891 00000918 FF B5 FFFFFBAC                  	PUSH	DWORD [-1108+EBP]
   892 0000091E 53                              	PUSH	EBX
   893 0000091F E8 [00000000]                   	CALL	_fifo32_put
   894 00000924 83 C4 10                        	ADD	ESP,16
   895 00000927 E9 FFFFFEEC                     	JMP	L31
   896 0000092C                                 L79:
   897 0000092C 68 000000ED                     	PUSH	237
   898 00000931 8D 5D 84                        	LEA	EBX,DWORD [-124+EBP]
   899 00000934 53                              	PUSH	EBX
   900 00000935 83 B5 FFFFFBAC 04               	XOR	DWORD [-1108+EBP],4
   901 0000093C E8 [00000000]                   	CALL	_fifo32_put
   902 00000941 FF B5 FFFFFBAC                  	PUSH	DWORD [-1108+EBP]
   903 00000947 53                              	PUSH	EBX
   904 00000948 E8 [00000000]                   	CALL	_fifo32_put
   905 0000094D 83 C4 10                        	ADD	ESP,16
   906 00000950 E9 FFFFFEB3                     	JMP	L30
   907 00000955                                 L78:
   908 00000955 83 A5 FFFFFBB0 FD               	AND	DWORD [-1104+EBP],-3
   909 0000095C E9 FFFFFE97                     	JMP	L29
   910 00000961                                 L77:
   911 00000961 83 A5 FFFFFBB0 FE               	AND	DWORD [-1104+EBP],-2
   912 00000968 E9 FFFFFE7B                     	JMP	L28
   913 0000096D                                 L76:
   914 0000096D 83 8D FFFFFBB0 02               	OR	DWORD [-1104+EBP],2
   915 00000974 E9 FFFFFE5F                     	JMP	L27
   916 00000979                                 L75:
   917 00000979 83 8D FFFFFBB0 01               	OR	DWORD [-1104+EBP],1
   918 00000980 E9 FFFFFE43                     	JMP	L26
   919 00000985                                 L74:
   920 00000985 57                              	PUSH	EDI
   921 00000986 E8 00000097                     	CALL	_keywin_off
   922 0000098B 8B 4F 18                        	MOV	ECX,DWORD [24+EDI]
   923 0000098E 49                              	DEC	ECX
   924 0000098F 5B                              	POP	EBX
   925 00000990 75 0A                           	JNE	L25
   926 00000992 8B 85 FFFFFBD0                  	MOV	EAX,DWORD [-1072+EBP]
   927 00000998 8B 48 10                        	MOV	ECX,DWORD [16+EAX]
   928 0000099B 49                              	DEC	ECX
   929 0000099C                                 L25:
   930 0000099C 8B 95 FFFFFBD0                  	MOV	EDX,DWORD [-1072+EBP]
   931 000009A2 8B 7C 8A 14                     	MOV	EDI,DWORD [20+EDX+ECX*4]
   932 000009A6 57                              	PUSH	EDI
   933 000009A7 E8 000000A4                     	CALL	_keywin_on
   934 000009AC 59                              	POP	ECX
   935 000009AD E9 FFFFFE06                     	JMP	L24
   936 000009B2                                 L21:
   937 000009B2 8D 42 20                        	LEA	EAX,DWORD [32+EDX]
   938 000009B5 88 45 C4                        	MOV	BYTE [-60+EBP],AL
   939 000009B8 E9 FFFFFDCD                     	JMP	L19
   940 000009BD                                 L63:
   941 000009BD 83 BD FFFFFBB0 00               	CMP	DWORD [-1104+EBP],0
   942 000009C4 0F 84 FFFFFDC0                  	JE	L19
   943 000009CA EB E6                           	JMP	L21
   944 000009CC                                 L16:
   945 000009CC 8B 95 FFFFFBC4                  	MOV	EDX,DWORD [-1084+EBP]
   946 000009D2 8A 82 [FFFFFF80]                	MOV	AL,BYTE [_keytable1.1-256+EDX]
   947 000009D8 E9 FFFFFD83                     	JMP	L65
   948 000009DD                                 L15:
   949 000009DD C6 45 C4 00                     	MOV	BYTE [-60+EBP],0
   950 000009E1 E9 FFFFFD7D                     	JMP	L18
   951 000009E6                                 L68:
   952 000009E6 FF B5 FFFFFBB4                  	PUSH	DWORD [-1100+EBP]
   953 000009EC E8 [00000000]                   	CALL	_task_sleep
   954 000009F1 E8 [00000000]                   	CALL	_io_sti
   955 000009F6 58                              	POP	EAX
   956 000009F7 E9 FFFFFA51                     	JMP	L7
   957 000009FC                                 L67:
   958 000009FC 53                              	PUSH	EBX
   959 000009FD E8 [00000000]                   	CALL	_fifo32_get
   960 00000A02 89 85 FFFFFBA8                  	MOV	DWORD [-1112+EBP],EAX
   961 00000A08 E8 [00000000]                   	CALL	_wait_KBC_sendready
   962 00000A0D FF B5 FFFFFBA8                  	PUSH	DWORD [-1112+EBP]
   963 00000A13 6A 60                           	PUSH	96
   964 00000A15 E8 [00000000]                   	CALL	_io_out8
   965 00000A1A 83 C4 0C                        	ADD	ESP,12
   966 00000A1D E9 FFFFFA46                     	JMP	L10
   967 00000A22                                 	GLOBAL	_keywin_off
   968 00000A22                                 _keywin_off:
   969 00000A22 55                              	PUSH	EBP
   970 00000A23 89 E5                           	MOV	EBP,ESP
   971 00000A25 53                              	PUSH	EBX
   972 00000A26 6A 00                           	PUSH	0
   973 00000A28 8B 5D 08                        	MOV	EBX,DWORD [8+EBP]
   974 00000A2B 53                              	PUSH	EBX
   975 00000A2C E8 [00000000]                   	CALL	_change_wtitle8
   976 00000A31 F6 43 1C 20                     	TEST	BYTE [28+EBX],32
   977 00000A35 58                              	POP	EAX
   978 00000A36 5A                              	POP	EDX
   979 00000A37 75 05                           	JNE	L87
   980 00000A39                                 L85:
   981 00000A39 8B 5D FC                        	MOV	EBX,DWORD [-4+EBP]
   982 00000A3C C9                              	LEAVE
   983 00000A3D C3                              	RET
   984 00000A3E                                 L87:
   985 00000A3E 6A 03                           	PUSH	3
   986 00000A40 8B 43 24                        	MOV	EAX,DWORD [36+EBX]
   987 00000A43 83 C0 10                        	ADD	EAX,16
   988 00000A46 50                              	PUSH	EAX
   989 00000A47 E8 [00000000]                   	CALL	_fifo32_put
   990 00000A4C 5B                              	POP	EBX
   991 00000A4D 58                              	POP	EAX
   992 00000A4E EB E9                           	JMP	L85
   993 00000A50                                 	GLOBAL	_keywin_on
   994 00000A50                                 _keywin_on:
   995 00000A50 55                              	PUSH	EBP
   996 00000A51 89 E5                           	MOV	EBP,ESP
   997 00000A53 53                              	PUSH	EBX
   998 00000A54 6A 01                           	PUSH	1
   999 00000A56 8B 5D 08                        	MOV	EBX,DWORD [8+EBP]
  1000 00000A59 53                              	PUSH	EBX
  1001 00000A5A E8 [00000000]                   	CALL	_change_wtitle8
  1002 00000A5F F6 43 1C 20                     	TEST	BYTE [28+EBX],32
  1003 00000A63 58                              	POP	EAX
  1004 00000A64 5A                              	POP	EDX
  1005 00000A65 75 05                           	JNE	L90
  1006 00000A67                                 L88:
  1007 00000A67 8B 5D FC                        	MOV	EBX,DWORD [-4+EBP]
  1008 00000A6A C9                              	LEAVE
  1009 00000A6B C3                              	RET
  1010 00000A6C                                 L90:
  1011 00000A6C 6A 02                           	PUSH	2
  1012 00000A6E 8B 43 24                        	MOV	EAX,DWORD [36+EBX]
  1013 00000A71 83 C0 10                        	ADD	EAX,16
  1014 00000A74 50                              	PUSH	EAX
  1015 00000A75 E8 [00000000]                   	CALL	_fifo32_put
  1016 00000A7A 59                              	POP	ECX
  1017 00000A7B 5B                              	POP	EBX
  1018 00000A7C EB E9                           	JMP	L88
